
Flappy_2.0.elf:     file format elf32-avr

Sections:
Idx Name          Size      VMA       LMA       File off  Algn
  0 .data         00000014  00800200  000005b8  0000064c  2**0
                  CONTENTS, ALLOC, LOAD, DATA
  1 .text         000005b8  00000000  00000000  00000094  2**1
                  CONTENTS, ALLOC, LOAD, READONLY, CODE
  2 .bss          00000014  00800214  00800214  00000660  2**0
                  ALLOC
  3 .comment      00000030  00000000  00000000  00000660  2**0
                  CONTENTS, READONLY
  4 .note.gnu.avr.deviceinfo 00000040  00000000  00000000  00000690  2**2
                  CONTENTS, READONLY
  5 .debug_aranges 000000e0  00000000  00000000  000006d0  2**0
                  CONTENTS, READONLY, DEBUGGING
  6 .debug_info   00001df4  00000000  00000000  000007b0  2**0
                  CONTENTS, READONLY, DEBUGGING
  7 .debug_abbrev 0000107f  00000000  00000000  000025a4  2**0
                  CONTENTS, READONLY, DEBUGGING
  8 .debug_line   000008d1  00000000  00000000  00003623  2**0
                  CONTENTS, READONLY, DEBUGGING
  9 .debug_frame  000002d0  00000000  00000000  00003ef4  2**2
                  CONTENTS, READONLY, DEBUGGING
 10 .debug_str    00000a91  00000000  00000000  000041c4  2**0
                  CONTENTS, READONLY, DEBUGGING
 11 .debug_loc    00000a80  00000000  00000000  00004c55  2**0
                  CONTENTS, READONLY, DEBUGGING
 12 .debug_ranges 000000c0  00000000  00000000  000056d5  2**0
                  CONTENTS, READONLY, DEBUGGING

Disassembly of section .text:

00000000 <__vectors>:
   0:	72 c0       	rjmp	.+228    	; 0xe6 <__ctors_end>
   2:	00 00       	nop
   4:	9e c0       	rjmp	.+316    	; 0x142 <__bad_interrupt>
   6:	00 00       	nop
   8:	9c c0       	rjmp	.+312    	; 0x142 <__bad_interrupt>
   a:	00 00       	nop
   c:	9a c0       	rjmp	.+308    	; 0x142 <__bad_interrupt>
   e:	00 00       	nop
  10:	98 c0       	rjmp	.+304    	; 0x142 <__bad_interrupt>
  12:	00 00       	nop
  14:	e7 c0       	rjmp	.+462    	; 0x1e4 <__vector_5>
  16:	00 00       	nop
  18:	94 c0       	rjmp	.+296    	; 0x142 <__bad_interrupt>
  1a:	00 00       	nop
  1c:	92 c0       	rjmp	.+292    	; 0x142 <__bad_interrupt>
  1e:	00 00       	nop
  20:	90 c0       	rjmp	.+288    	; 0x142 <__bad_interrupt>
  22:	00 00       	nop
  24:	8e c0       	rjmp	.+284    	; 0x142 <__bad_interrupt>
  26:	00 00       	nop
  28:	8c c0       	rjmp	.+280    	; 0x142 <__bad_interrupt>
  2a:	00 00       	nop
  2c:	8a c0       	rjmp	.+276    	; 0x142 <__bad_interrupt>
  2e:	00 00       	nop
  30:	88 c0       	rjmp	.+272    	; 0x142 <__bad_interrupt>
  32:	00 00       	nop
  34:	86 c0       	rjmp	.+268    	; 0x142 <__bad_interrupt>
  36:	00 00       	nop
  38:	84 c0       	rjmp	.+264    	; 0x142 <__bad_interrupt>
  3a:	00 00       	nop
  3c:	82 c0       	rjmp	.+260    	; 0x142 <__bad_interrupt>
  3e:	00 00       	nop
  40:	80 c0       	rjmp	.+256    	; 0x142 <__bad_interrupt>
  42:	00 00       	nop
  44:	06 c1       	rjmp	.+524    	; 0x252 <__vector_17>
  46:	00 00       	nop
  48:	7c c0       	rjmp	.+248    	; 0x142 <__bad_interrupt>
  4a:	00 00       	nop
  4c:	7a c0       	rjmp	.+244    	; 0x142 <__bad_interrupt>
  4e:	00 00       	nop
  50:	78 c0       	rjmp	.+240    	; 0x142 <__bad_interrupt>
  52:	00 00       	nop
  54:	76 c0       	rjmp	.+236    	; 0x142 <__bad_interrupt>
  56:	00 00       	nop
  58:	74 c0       	rjmp	.+232    	; 0x142 <__bad_interrupt>
  5a:	00 00       	nop
  5c:	72 c0       	rjmp	.+228    	; 0x142 <__bad_interrupt>
  5e:	00 00       	nop
  60:	70 c0       	rjmp	.+224    	; 0x142 <__bad_interrupt>
  62:	00 00       	nop
  64:	6e c0       	rjmp	.+220    	; 0x142 <__bad_interrupt>
  66:	00 00       	nop
  68:	6c c0       	rjmp	.+216    	; 0x142 <__bad_interrupt>
  6a:	00 00       	nop
  6c:	6a c0       	rjmp	.+212    	; 0x142 <__bad_interrupt>
  6e:	00 00       	nop
  70:	68 c0       	rjmp	.+208    	; 0x142 <__bad_interrupt>
  72:	00 00       	nop
  74:	66 c0       	rjmp	.+204    	; 0x142 <__bad_interrupt>
  76:	00 00       	nop
  78:	64 c0       	rjmp	.+200    	; 0x142 <__bad_interrupt>
  7a:	00 00       	nop
  7c:	62 c0       	rjmp	.+196    	; 0x142 <__bad_interrupt>
  7e:	00 00       	nop
  80:	60 c0       	rjmp	.+192    	; 0x142 <__bad_interrupt>
  82:	00 00       	nop
  84:	5e c0       	rjmp	.+188    	; 0x142 <__bad_interrupt>
  86:	00 00       	nop
  88:	5c c0       	rjmp	.+184    	; 0x142 <__bad_interrupt>
  8a:	00 00       	nop
  8c:	5a c0       	rjmp	.+180    	; 0x142 <__bad_interrupt>
  8e:	00 00       	nop
  90:	58 c0       	rjmp	.+176    	; 0x142 <__bad_interrupt>
  92:	00 00       	nop
  94:	56 c0       	rjmp	.+172    	; 0x142 <__bad_interrupt>
  96:	00 00       	nop
  98:	54 c0       	rjmp	.+168    	; 0x142 <__bad_interrupt>
  9a:	00 00       	nop
  9c:	52 c0       	rjmp	.+164    	; 0x142 <__bad_interrupt>
  9e:	00 00       	nop
  a0:	50 c0       	rjmp	.+160    	; 0x142 <__bad_interrupt>
  a2:	00 00       	nop
  a4:	4e c0       	rjmp	.+156    	; 0x142 <__bad_interrupt>
  a6:	00 00       	nop
  a8:	4c c0       	rjmp	.+152    	; 0x142 <__bad_interrupt>
  aa:	00 00       	nop
  ac:	4a c0       	rjmp	.+148    	; 0x142 <__bad_interrupt>
  ae:	00 00       	nop
  b0:	48 c0       	rjmp	.+144    	; 0x142 <__bad_interrupt>
  b2:	00 00       	nop
  b4:	46 c0       	rjmp	.+140    	; 0x142 <__bad_interrupt>
  b6:	00 00       	nop
  b8:	44 c0       	rjmp	.+136    	; 0x142 <__bad_interrupt>
  ba:	00 00       	nop
  bc:	42 c0       	rjmp	.+132    	; 0x142 <__bad_interrupt>
  be:	00 00       	nop
  c0:	40 c0       	rjmp	.+128    	; 0x142 <__bad_interrupt>
  c2:	00 00       	nop
  c4:	3e c0       	rjmp	.+124    	; 0x142 <__bad_interrupt>
  c6:	00 00       	nop
  c8:	3c c0       	rjmp	.+120    	; 0x142 <__bad_interrupt>
  ca:	00 00       	nop
  cc:	3a c0       	rjmp	.+116    	; 0x142 <__bad_interrupt>
  ce:	00 00       	nop
  d0:	38 c0       	rjmp	.+112    	; 0x142 <__bad_interrupt>
  d2:	00 00       	nop
  d4:	36 c0       	rjmp	.+108    	; 0x142 <__bad_interrupt>
  d6:	00 00       	nop
  d8:	34 c0       	rjmp	.+104    	; 0x142 <__bad_interrupt>
  da:	00 00       	nop
  dc:	32 c0       	rjmp	.+100    	; 0x142 <__bad_interrupt>
  de:	00 00       	nop
  e0:	30 c0       	rjmp	.+96     	; 0x142 <__bad_interrupt>
	...

000000e4 <__ctors_start>:
  e4:	5a 01       	movw	r10, r20

000000e6 <__ctors_end>:
  e6:	11 24       	eor	r1, r1
  e8:	1f be       	out	0x3f, r1	; 63
  ea:	cf ef       	ldi	r28, 0xFF	; 255
  ec:	d1 e2       	ldi	r29, 0x21	; 33
  ee:	de bf       	out	0x3e, r29	; 62
  f0:	cd bf       	out	0x3d, r28	; 61
  f2:	00 e0       	ldi	r16, 0x00	; 0
  f4:	0c bf       	out	0x3c, r16	; 60

000000f6 <__do_copy_data>:
  f6:	12 e0       	ldi	r17, 0x02	; 2
  f8:	a0 e0       	ldi	r26, 0x00	; 0
  fa:	b2 e0       	ldi	r27, 0x02	; 2
  fc:	e8 eb       	ldi	r30, 0xB8	; 184
  fe:	f5 e0       	ldi	r31, 0x05	; 5
 100:	00 e0       	ldi	r16, 0x00	; 0
 102:	0b bf       	out	0x3b, r16	; 59
 104:	02 c0       	rjmp	.+4      	; 0x10a <__do_copy_data+0x14>
 106:	07 90       	elpm	r0, Z+
 108:	0d 92       	st	X+, r0
 10a:	a4 31       	cpi	r26, 0x14	; 20
 10c:	b1 07       	cpc	r27, r17
 10e:	d9 f7       	brne	.-10     	; 0x106 <__do_copy_data+0x10>

00000110 <__do_clear_bss>:
 110:	22 e0       	ldi	r18, 0x02	; 2
 112:	a4 e1       	ldi	r26, 0x14	; 20
 114:	b2 e0       	ldi	r27, 0x02	; 2
 116:	01 c0       	rjmp	.+2      	; 0x11a <.do_clear_bss_start>

00000118 <.do_clear_bss_loop>:
 118:	1d 92       	st	X+, r1

0000011a <.do_clear_bss_start>:
 11a:	a8 32       	cpi	r26, 0x28	; 40
 11c:	b2 07       	cpc	r27, r18
 11e:	e1 f7       	brne	.-8      	; 0x118 <.do_clear_bss_loop>

00000120 <__do_global_ctors>:
 120:	10 e0       	ldi	r17, 0x00	; 0
 122:	c3 e7       	ldi	r28, 0x73	; 115
 124:	d0 e0       	ldi	r29, 0x00	; 0
 126:	00 e0       	ldi	r16, 0x00	; 0
 128:	05 c0       	rjmp	.+10     	; 0x134 <__do_global_ctors+0x14>
 12a:	21 97       	sbiw	r28, 0x01	; 1
 12c:	01 09       	sbc	r16, r1
 12e:	80 2f       	mov	r24, r16
 130:	fe 01       	movw	r30, r28
 132:	05 d2       	rcall	.+1034   	; 0x53e <__tablejump2__>
 134:	c2 37       	cpi	r28, 0x72	; 114
 136:	d1 07       	cpc	r29, r17
 138:	80 e0       	ldi	r24, 0x00	; 0
 13a:	08 07       	cpc	r16, r24
 13c:	b1 f7       	brne	.-20     	; 0x12a <__do_global_ctors+0xa>
 13e:	33 d0       	rcall	.+102    	; 0x1a6 <main>
 140:	39 c2       	rjmp	.+1138   	; 0x5b4 <_exit>

00000142 <__bad_interrupt>:
 142:	5e cf       	rjmp	.-324    	; 0x0 <__vectors>

00000144 <_Z8SendCharc>:
	Tegn : Character for sending. 
*************************************************************************/
void SendChar(char Tegn)
{
  // Wait for transmitter register empty (ready for new character)
  while ( (UCSR0A & (1<<5)) == 0 )
 144:	e0 ec       	ldi	r30, 0xC0	; 192
 146:	f0 e0       	ldi	r31, 0x00	; 0
 148:	90 81       	ld	r25, Z
 14a:	95 ff       	sbrs	r25, 5
 14c:	fd cf       	rjmp	.-6      	; 0x148 <_Z8SendCharc+0x4>
  {}
  // Then send the character
  UDR0 = Tegn;
 14e:	80 93 c6 00 	sts	0x00C6, r24	; 0x8000c6 <__TEXT_REGION_LENGTH__+0x7000c6>
 152:	08 95       	ret

00000154 <_Z10SendStringPc>:
Sends 0 terminated string.
Parameter:
   Streng: Pointer to the string. 
*************************************************************************/
void SendString(char* Streng)
{
 154:	cf 93       	push	r28
 156:	df 93       	push	r29
 158:	ec 01       	movw	r28, r24
  // Repeat until zero-termination
  while (*Streng != 0)
 15a:	88 81       	ld	r24, Y
 15c:	88 23       	and	r24, r24
 15e:	29 f0       	breq	.+10     	; 0x16a <_Z10SendStringPc+0x16>
 160:	21 96       	adiw	r28, 0x01	; 1
  {
    // Send the character pointed to by "Streng"
    SendChar(*Streng);
 162:	f0 df       	rcall	.-32     	; 0x144 <_Z8SendCharc>
   Streng: Pointer to the string. 
*************************************************************************/
void SendString(char* Streng)
{
  // Repeat until zero-termination
  while (*Streng != 0)
 164:	89 91       	ld	r24, Y+
 166:	81 11       	cpse	r24, r1
 168:	fc cf       	rjmp	.-8      	; 0x162 <_Z10SendStringPc+0xe>
    // Send the character pointed to by "Streng"
    SendChar(*Streng);
    // Advance the pointer one step
    Streng++;
  }
}
 16a:	df 91       	pop	r29
 16c:	cf 91       	pop	r28
 16e:	08 95       	ret

00000170 <_Z11SendIntegeri>:
Makes use of the C standard library <stdlib.h>.
Parameter:
    Tal: The integer to be converted and sent. 
*************************************************************************/
void SendInteger(int Tal)
{
 170:	cf 93       	push	r28
 172:	df 93       	push	r29
 174:	cd b7       	in	r28, 0x3d	; 61
 176:	de b7       	in	r29, 0x3e	; 62
 178:	27 97       	sbiw	r28, 0x07	; 7
 17a:	0f b6       	in	r0, 0x3f	; 63
 17c:	f8 94       	cli
 17e:	de bf       	out	0x3e, r29	; 62
 180:	0f be       	out	0x3f, r0	; 63
 182:	cd bf       	out	0x3d, r28	; 61
    } else if (__radix < 2 || __radix > 36) {
	*__s = 0;
	return __s;
    } else {
	extern char *__itoa_ncheck (int, char *, unsigned char);
	return __itoa_ncheck (__val, __s, __radix);
 184:	4a e0       	ldi	r20, 0x0A	; 10
 186:	be 01       	movw	r22, r28
 188:	6f 5f       	subi	r22, 0xFF	; 255
 18a:	7f 4f       	sbci	r23, 0xFF	; 255
 18c:	e0 d1       	rcall	.+960    	; 0x54e <__itoa_ncheck>
char array[7];
  // Convert the integer to an ASCII string (array), radix = 10 
  itoa(Tal, array, 10);
  // - then send the string
  SendString(array);
 18e:	ce 01       	movw	r24, r28
 190:	01 96       	adiw	r24, 0x01	; 1
 192:	e0 df       	rcall	.-64     	; 0x154 <_Z10SendStringPc>
}
 194:	27 96       	adiw	r28, 0x07	; 7
 196:	0f b6       	in	r0, 0x3f	; 63
 198:	f8 94       	cli
 19a:	de bf       	out	0x3e, r29	; 62
 19c:	0f be       	out	0x3f, r0	; 63
 19e:	cd bf       	out	0x3d, r28	; 61
 1a0:	df 91       	pop	r29
 1a2:	cf 91       	pop	r28
 1a4:	08 95       	ret

000001a6 <main>:
void InitUART(unsigned long BaudRate, unsigned char DataBit, char Parity)
{
  if ((BaudRate >= 300) && (BaudRate <= 115200) && (DataBit >=5) && (DataBit <= 8))
  { 
    // "Normal" clock, no multiprocessor mode (= default)
    UCSR0A = 0b00100000;
 1a6:	80 e2       	ldi	r24, 0x20	; 32
 1a8:	80 93 c0 00 	sts	0x00C0, r24	; 0x8000c0 <__TEXT_REGION_LENGTH__+0x7000c0>
    // No interrupts enabled
    // Receiver enabled
    // Transmitter enabled
    // No 9 bit operation
    UCSR0B = 0b00011000;	
 1ac:	88 e1       	ldi	r24, 0x18	; 24
 1ae:	80 93 c1 00 	sts	0x00C1, r24	; 0x8000c1 <__TEXT_REGION_LENGTH__+0x7000c1>
    // Asynchronous operation, 1 stop bit
    // Bit 2 and bit 1 controls the number of data bits
    UCSR0C = (DataBit-5)<<1;
 1b2:	86 e0       	ldi	r24, 0x06	; 6
 1b4:	80 93 c2 00 	sts	0x00C2, r24	; 0x8000c2 <__TEXT_REGION_LENGTH__+0x7000c2>
	if (Parity == 'E')
      UCSR0C |= 0b00100000;
    else if (Parity == 'O')	  
      UCSR0C |= 0b00110000;	
    // Set Baud Rate according to the parameter BaudRate:
    UBRR0 = XTAL/(16*BaudRate) - 1;
 1b8:	87 e6       	ldi	r24, 0x67	; 103
 1ba:	90 e0       	ldi	r25, 0x00	; 0
 1bc:	90 93 c5 00 	sts	0x00C5, r25	; 0x8000c5 <__TEXT_REGION_LENGTH__+0x7000c5>
 1c0:	80 93 c4 00 	sts	0x00C4, r24	; 0x8000c4 <__TEXT_REGION_LENGTH__+0x7000c4>
{	 
    //Main loop, skal håndtere hele spillet.
	//freeRTOS bør nok benyttes.
	InitUART(9600,8,'N');
	////_delay_ms(1000);
	touchDriver.InitTouch();
 1c4:	84 e1       	ldi	r24, 0x14	; 20
 1c6:	92 e0       	ldi	r25, 0x02	; 2
 1c8:	42 d1       	rcall	.+644    	; 0x44e <_ZN11TouchDriver9InitTouchEv>
	SendString("RST");
 1ca:	80 e0       	ldi	r24, 0x00	; 0
 1cc:	92 e0       	ldi	r25, 0x02	; 2
 1ce:	c2 df       	rcall	.-124    	; 0x154 <_Z10SendStringPc>
	#else
		//round up by default
		__ticks_dc = (uint32_t)(ceil(fabs(__tmp)));
	#endif

	__builtin_avr_delay_cycles(__ticks_dc);
 1d0:	2f ef       	ldi	r18, 0xFF	; 255
 1d2:	83 ed       	ldi	r24, 0xD3	; 211
 1d4:	90 e3       	ldi	r25, 0x30	; 48
 1d6:	21 50       	subi	r18, 0x01	; 1
 1d8:	80 40       	sbci	r24, 0x00	; 0
 1da:	90 40       	sbci	r25, 0x00	; 0
 1dc:	e1 f7       	brne	.-8      	; 0x1d6 <main+0x30>
 1de:	00 c0       	rjmp	.+0      	; 0x1e0 <main+0x3a>
 1e0:	00 00       	nop
 1e2:	f6 cf       	rjmp	.-20     	; 0x1d0 <main+0x2a>

000001e4 <__vector_5>:
		_delay_ms(1000);
    }
}

ISR(INT4_vect)
{
 1e4:	1f 92       	push	r1
 1e6:	0f 92       	push	r0
 1e8:	0f b6       	in	r0, 0x3f	; 63
 1ea:	0f 92       	push	r0
 1ec:	11 24       	eor	r1, r1
 1ee:	0b b6       	in	r0, 0x3b	; 59
 1f0:	0f 92       	push	r0
 1f2:	2f 93       	push	r18
 1f4:	3f 93       	push	r19
 1f6:	4f 93       	push	r20
 1f8:	5f 93       	push	r21
 1fa:	6f 93       	push	r22
 1fc:	7f 93       	push	r23
 1fe:	8f 93       	push	r24
 200:	9f 93       	push	r25
 202:	af 93       	push	r26
 204:	bf 93       	push	r27
 206:	ef 93       	push	r30
 208:	ff 93       	push	r31
	//Disable interrupt - will be enable again on timer0 overflow.
	cbi(EIMSK, IRQ_PIN);
 20a:	ec 98       	cbi	0x1d, 4	; 29
	touchDriver.Read();
 20c:	84 e1       	ldi	r24, 0x14	; 20
 20e:	92 e0       	ldi	r25, 0x02	; 2
 210:	46 d1       	rcall	.+652    	; 0x49e <_ZN11TouchDriver4ReadEv>
	SendInteger(touchDriver.getX());
 212:	84 e1       	ldi	r24, 0x14	; 20
 214:	92 e0       	ldi	r25, 0x02	; 2
 216:	90 d0       	rcall	.+288    	; 0x338 <_ZN11TouchDriver4getXEv>
 218:	ab df       	rcall	.-170    	; 0x170 <_Z11SendIntegeri>
	SendChar(' ');
 21a:	80 e2       	ldi	r24, 0x20	; 32
 21c:	93 df       	rcall	.-218    	; 0x144 <_Z8SendCharc>
	SendInteger(touchDriver.getY());
 21e:	84 e1       	ldi	r24, 0x14	; 20
 220:	92 e0       	ldi	r25, 0x02	; 2
 222:	98 d0       	rcall	.+304    	; 0x354 <_ZN11TouchDriver4getYEv>
 224:	a5 df       	rcall	.-182    	; 0x170 <_Z11SendIntegeri>
 226:	84 e1       	ldi	r24, 0x14	; 20
	touchDriver.SetTimer1_EnableInterrupt();
 228:	92 e0       	ldi	r25, 0x02	; 2
 22a:	d5 d0       	rcall	.+426    	; 0x3d6 <_ZN11TouchDriver25SetTimer1_EnableInterruptEv>
 22c:	ff 91       	pop	r31
 22e:	ef 91       	pop	r30
}
 230:	bf 91       	pop	r27
 232:	af 91       	pop	r26
 234:	9f 91       	pop	r25
 236:	8f 91       	pop	r24
 238:	7f 91       	pop	r23
 23a:	6f 91       	pop	r22
 23c:	5f 91       	pop	r21
 23e:	4f 91       	pop	r20
 240:	3f 91       	pop	r19
 242:	2f 91       	pop	r18
 244:	0f 90       	pop	r0
 246:	0b be       	out	0x3b, r0	; 59
 248:	0f 90       	pop	r0
 24a:	0f be       	out	0x3f, r0	; 63
 24c:	0f 90       	pop	r0
 24e:	1f 90       	pop	r1
 250:	18 95       	reti

00000252 <__vector_17>:
 252:	1f 92       	push	r1
 254:	0f 92       	push	r0

ISR(TIMER1_COMPA_vect)
{
 256:	0f b6       	in	r0, 0x3f	; 63
 258:	0f 92       	push	r0
 25a:	11 24       	eor	r1, r1
 25c:	0b b6       	in	r0, 0x3b	; 59
 25e:	0f 92       	push	r0
 260:	2f 93       	push	r18
 262:	3f 93       	push	r19
 264:	4f 93       	push	r20
 266:	5f 93       	push	r21
 268:	6f 93       	push	r22
 26a:	7f 93       	push	r23
 26c:	8f 93       	push	r24
 26e:	9f 93       	push	r25
 270:	af 93       	push	r26
 272:	bf 93       	push	r27
 274:	ef 93       	push	r30
 276:	ff 93       	push	r31
	TIMSK1 = 0; //Disable timer interrupt
 278:	10 92 6f 00 	sts	0x006F, r1	; 0x80006f <__TEXT_REGION_LENGTH__+0x70006f>
	
	//Disable timer
	TCCR1A = 0;
 27c:	10 92 80 00 	sts	0x0080, r1	; 0x800080 <__TEXT_REGION_LENGTH__+0x700080>
	TCCR1B = 0;
 280:	10 92 81 00 	sts	0x0081, r1	; 0x800081 <__TEXT_REGION_LENGTH__+0x700081>
	
	sbi(EIFR, 4); //Clear INT4 flag if set in mean time to avoid additional interrupts
 284:	e4 9a       	sbi	0x1c, 4	; 28
	sbi(EIMSK, IRQ_PIN); //re-enable interrupt
 286:	ec 9a       	sbi	0x1d, 4	; 29
	SendString("Timer interrupt");
 288:	84 e0       	ldi	r24, 0x04	; 4
 28a:	92 e0       	ldi	r25, 0x02	; 2
 28c:	63 df       	rcall	.-314    	; 0x154 <_Z10SendStringPc>
 28e:	ff 91       	pop	r31
 290:	ef 91       	pop	r30
 292:	bf 91       	pop	r27
 294:	af 91       	pop	r26
 296:	9f 91       	pop	r25
 298:	8f 91       	pop	r24
 29a:	7f 91       	pop	r23
 29c:	6f 91       	pop	r22
 29e:	5f 91       	pop	r21
 2a0:	4f 91       	pop	r20
 2a2:	3f 91       	pop	r19
 2a4:	2f 91       	pop	r18
 2a6:	0f 90       	pop	r0
 2a8:	0b be       	out	0x3b, r0	; 59
 2aa:	0f 90       	pop	r0
 2ac:	0f be       	out	0x3f, r0	; 63
 2ae:	0f 90       	pop	r0
 2b0:	1f 90       	pop	r1
 2b2:	18 95       	reti

000002b4 <_GLOBAL__sub_I__Z8InitUARTmhc>:
 2b4:	ef 92       	push	r14
 2b6:	ff 92       	push	r15
 2b8:	0f 93       	push	r16
 2ba:	1f 93       	push	r17
#include "TouchDriver/TouchDriver.h"
#include "UARTDriver/uart.c"
#include "TouchDriver/Position.h"
#include <util/delay.h>

TouchDriver touchDriver(400, 400, 4095, 320, 240);
 2bc:	0f 2e       	mov	r0, r31
 2be:	f0 ef       	ldi	r31, 0xF0	; 240
 2c0:	ef 2e       	mov	r14, r31
 2c2:	f1 2c       	mov	r15, r1
 2c4:	f0 2d       	mov	r31, r0
 2c6:	00 e4       	ldi	r16, 0x40	; 64
 2c8:	11 e0       	ldi	r17, 0x01	; 1
 2ca:	2f ef       	ldi	r18, 0xFF	; 255
 2cc:	3f e0       	ldi	r19, 0x0F	; 15
 2ce:	40 e9       	ldi	r20, 0x90	; 144
 2d0:	51 e0       	ldi	r21, 0x01	; 1
 2d2:	60 e9       	ldi	r22, 0x90	; 144
 2d4:	71 e0       	ldi	r23, 0x01	; 1
 2d6:	84 e1       	ldi	r24, 0x14	; 20
 2d8:	92 e0       	ldi	r25, 0x02	; 2
 2da:	05 d0       	rcall	.+10     	; 0x2e6 <_ZN11TouchDriverC1Eiiiii>
	TCCR1B = 0;
	
	sbi(EIFR, 4); //Clear INT4 flag if set in mean time to avoid additional interrupts
	sbi(EIMSK, IRQ_PIN); //re-enable interrupt
	SendString("Timer interrupt");
 2dc:	1f 91       	pop	r17
 2de:	0f 91       	pop	r16
 2e0:	ff 90       	pop	r15
 2e2:	ef 90       	pop	r14
 2e4:	08 95       	ret

000002e6 <_ZN11TouchDriverC1Eiiiii>:
	bool dataAvailable;
	//cbi(IRQ_DDR, IRQ_PIN);
	dataAvailable = !rbi(IRQ_PORT,IRQ_PIN);
	//sbi(IRQ_DDR, IRQ_PIN);
	return dataAvailable;
}
 2e6:	ef 92       	push	r14
 2e8:	ff 92       	push	r15
 2ea:	0f 93       	push	r16
 2ec:	1f 93       	push	r17
 2ee:	cf 93       	push	r28
 2f0:	df 93       	push	r29
 2f2:	fc 01       	movw	r30, r24
 2f4:	ea 01       	movw	r28, r20
 2f6:	75 83       	std	Z+5, r23	; 0x05
 2f8:	64 83       	std	Z+4, r22	; 0x04
 2fa:	57 83       	std	Z+7, r21	; 0x07
 2fc:	46 83       	std	Z+6, r20	; 0x06
 2fe:	11 86       	std	Z+9, r1	; 0x09
 300:	10 86       	std	Z+8, r1	; 0x08
 302:	15 87       	std	Z+13, r17	; 0x0d
 304:	04 87       	std	Z+12, r16	; 0x0c
 306:	f7 86       	std	Z+15, r15	; 0x0f
 308:	e6 86       	std	Z+14, r14	; 0x0e
 30a:	33 87       	std	Z+11, r19	; 0x0b
 30c:	22 87       	std	Z+10, r18	; 0x0a
 30e:	c9 01       	movw	r24, r18
 310:	86 1b       	sub	r24, r22
 312:	97 0b       	sbc	r25, r23
 314:	b8 01       	movw	r22, r16
 316:	ec d0       	rcall	.+472    	; 0x4f0 <__divmodhi4>
 318:	71 8b       	std	Z+17, r23	; 0x11
 31a:	60 8b       	std	Z+16, r22	; 0x10
 31c:	c9 01       	movw	r24, r18
 31e:	8c 1b       	sub	r24, r28
 320:	9d 0b       	sbc	r25, r29
 322:	b7 01       	movw	r22, r14
 324:	e5 d0       	rcall	.+458    	; 0x4f0 <__divmodhi4>
 326:	73 8b       	std	Z+19, r23	; 0x13
 328:	62 8b       	std	Z+18, r22	; 0x12
 32a:	df 91       	pop	r29
 32c:	cf 91       	pop	r28
 32e:	1f 91       	pop	r17
 330:	0f 91       	pop	r16
 332:	ff 90       	pop	r15
 334:	ef 90       	pop	r14
 336:	08 95       	ret

00000338 <_ZN11TouchDriver4getXEv>:
 338:	fc 01       	movw	r30, r24
 33a:	20 81       	ld	r18, Z
 33c:	31 81       	ldd	r19, Z+1	; 0x01
 33e:	84 81       	ldd	r24, Z+4	; 0x04
 340:	95 81       	ldd	r25, Z+5	; 0x05
 342:	a9 01       	movw	r20, r18
 344:	48 1b       	sub	r20, r24
 346:	59 0b       	sbc	r21, r25
 348:	ca 01       	movw	r24, r20
 34a:	60 89       	ldd	r22, Z+16	; 0x10
 34c:	71 89       	ldd	r23, Z+17	; 0x11
 34e:	d0 d0       	rcall	.+416    	; 0x4f0 <__divmodhi4>
 350:	cb 01       	movw	r24, r22
 352:	08 95       	ret

00000354 <_ZN11TouchDriver4getYEv>:
 354:	fc 01       	movw	r30, r24
 356:	22 81       	ldd	r18, Z+2	; 0x02
 358:	33 81       	ldd	r19, Z+3	; 0x03
 35a:	86 81       	ldd	r24, Z+6	; 0x06
 35c:	97 81       	ldd	r25, Z+7	; 0x07
 35e:	a9 01       	movw	r20, r18
 360:	48 1b       	sub	r20, r24
 362:	59 0b       	sbc	r21, r25
 364:	ca 01       	movw	r24, r20
 366:	62 89       	ldd	r22, Z+18	; 0x12
 368:	73 89       	ldd	r23, Z+19	; 0x13
 36a:	c2 d0       	rcall	.+388    	; 0x4f0 <__divmodhi4>
 36c:	cb 01       	movw	r24, r22
 36e:	08 95       	ret

00000370 <_ZN11TouchDriver10ClockPulseEv>:
}

void TouchDriver::ClockPulse()
{
	//needs to be at least 500 to achieve 1.5 micro sec pr. 3 clockpulses
	_NOP();
 370:	00 00       	nop
	_NOP();
 372:	00 00       	nop
	//_NOP();
	//_NOP();
	//_NOP();
	sbi(CLK_PORT,CLK_PIN);
 374:	e2 e0       	ldi	r30, 0x02	; 2
 376:	f1 e0       	ldi	r31, 0x01	; 1
 378:	80 81       	ld	r24, Z
 37a:	88 60       	ori	r24, 0x08	; 8
 37c:	80 83       	st	Z, r24
	_NOP();
 37e:	00 00       	nop
	_NOP();
 380:	00 00       	nop
	//_NOP();
	//_NOP();
	//_NOP();
	cbi(CLK_PORT,CLK_PIN);
 382:	80 81       	ld	r24, Z
 384:	87 7f       	andi	r24, 0xF7	; 247
 386:	80 83       	st	Z, r24
 388:	08 95       	ret

0000038a <_ZN11TouchDriver8ReadDataEv>:
	}
	cbi(DIN_PORT,DIN_PIN);
}

int16_t TouchDriver::ReadData()
{
 38a:	ef 92       	push	r14
 38c:	ff 92       	push	r15
 38e:	0f 93       	push	r16
 390:	1f 93       	push	r17
 392:	cf 93       	push	r28
 394:	df 93       	push	r29
 396:	7c 01       	movw	r14, r24
	int16_t data = 0;
	_NOP();
 398:	00 00       	nop
	_NOP();
 39a:	00 00       	nop
	_NOP();
 39c:	00 00       	nop
	ClockPulse(); //Busy clock pulse
 39e:	e8 df       	rcall	.-48     	; 0x370 <_ZN11TouchDriver10ClockPulseEv>
 3a0:	0c e0       	ldi	r16, 0x0C	; 12
 3a2:	10 e0       	ldi	r17, 0x00	; 0
	cbi(DIN_PORT,DIN_PIN);
}

int16_t TouchDriver::ReadData()
{
	int16_t data = 0;
 3a4:	c0 e0       	ldi	r28, 0x00	; 0
 3a6:	d0 e0       	ldi	r29, 0x00	; 0
	_NOP();
	_NOP();
	ClockPulse(); //Busy clock pulse
	for (int i=0; i<12;i++)
	{
		data = data<<(1);
 3a8:	cc 0f       	add	r28, r28
 3aa:	dd 1f       	adc	r29, r29
		if(rbi(DOUT_PORT,DOUT_PIN))
 3ac:	65 99       	sbic	0x0c, 5	; 12
		{
			data++;
 3ae:	21 96       	adiw	r28, 0x01	; 1
		}
		ClockPulse();
 3b0:	c7 01       	movw	r24, r14
 3b2:	de df       	rcall	.-68     	; 0x370 <_ZN11TouchDriver10ClockPulseEv>
 3b4:	01 50       	subi	r16, 0x01	; 1
 3b6:	11 09       	sbc	r17, r1
	}
	for (int i=0; i<3;i++)
	{
		ClockPulse();
 3b8:	b9 f7       	brne	.-18     	; 0x3a8 <_ZN11TouchDriver8ReadDataEv+0x1e>
 3ba:	c7 01       	movw	r24, r14
 3bc:	d9 df       	rcall	.-78     	; 0x370 <_ZN11TouchDriver10ClockPulseEv>
 3be:	c7 01       	movw	r24, r14
 3c0:	d7 df       	rcall	.-82     	; 0x370 <_ZN11TouchDriver10ClockPulseEv>
 3c2:	c7 01       	movw	r24, r14
 3c4:	d5 df       	rcall	.-86     	; 0x370 <_ZN11TouchDriver10ClockPulseEv>
	}
	return data;
}
 3c6:	ce 01       	movw	r24, r28
 3c8:	df 91       	pop	r29
 3ca:	cf 91       	pop	r28
 3cc:	1f 91       	pop	r17
 3ce:	0f 91       	pop	r16
 3d0:	ff 90       	pop	r15
 3d2:	ef 90       	pop	r14
 3d4:	08 95       	ret

000003d6 <_ZN11TouchDriver25SetTimer1_EnableInterruptEv>:
	cbi(CLK_PORT,CLK_PIN);
}

void TouchDriver::SetTimer1_EnableInterrupt()
{
	TIMSK1 = 2; //Enable interrupt on compare A for timer 1
 3d6:	82 e0       	ldi	r24, 0x02	; 2
 3d8:	80 93 6f 00 	sts	0x006F, r24	; 0x80006f <__TEXT_REGION_LENGTH__+0x70006f>
	TCCR1A &= 0b11111100; //Set CTC mode
 3dc:	e0 e8       	ldi	r30, 0x80	; 128
 3de:	f0 e0       	ldi	r31, 0x00	; 0
 3e0:	80 81       	ld	r24, Z
 3e2:	8c 7f       	andi	r24, 0xFC	; 252
 3e4:	80 83       	st	Z, r24
	TCCR1B &= 0b11101111; //Set CTC mode
 3e6:	e1 e8       	ldi	r30, 0x81	; 129
 3e8:	f0 e0       	ldi	r31, 0x00	; 0
 3ea:	80 81       	ld	r24, Z
 3ec:	8f 7e       	andi	r24, 0xEF	; 239
 3ee:	80 83       	st	Z, r24
	TCCR1B |= 0b00001000; //Set CTC mode
 3f0:	80 81       	ld	r24, Z
 3f2:	88 60       	ori	r24, 0x08	; 8
 3f4:	80 83       	st	Z, r24
	OCR1A = 25000; //Compare on when timer reaches 25000 - every 100 ms;
 3f6:	88 ea       	ldi	r24, 0xA8	; 168
 3f8:	91 e6       	ldi	r25, 0x61	; 97
 3fa:	90 93 89 00 	sts	0x0089, r25	; 0x800089 <__TEXT_REGION_LENGTH__+0x700089>
 3fe:	80 93 88 00 	sts	0x0088, r24	; 0x800088 <__TEXT_REGION_LENGTH__+0x700088>
	TCCR1B |= 0b00000011; //Set 64 clock prescaler and start timer
 402:	80 81       	ld	r24, Z
 404:	83 60       	ori	r24, 0x03	; 3
 406:	80 83       	st	Z, r24
 408:	08 95       	ret

0000040a <_ZN11TouchDriver10ClearClockEv>:
}
void TouchDriver::ClearClock()
{
	cbi(CLK_PORT,CLK_PIN);
 40a:	e2 e0       	ldi	r30, 0x02	; 2
 40c:	f1 e0       	ldi	r31, 0x01	; 1
 40e:	80 81       	ld	r24, Z
 410:	87 7f       	andi	r24, 0xF7	; 247
 412:	80 83       	st	Z, r24
 414:	08 95       	ret

00000416 <_ZN11TouchDriver9WriteDataEh>:
	//sbi(IRQ_DDR, IRQ_PIN);
	return dataAvailable;
}

void TouchDriver::WriteData(unsigned char data)
{
 416:	ef 92       	push	r14
 418:	ff 92       	push	r15
 41a:	1f 93       	push	r17
 41c:	cf 93       	push	r28
 41e:	df 93       	push	r29
 420:	7c 01       	movw	r14, r24
 422:	16 2f       	mov	r17, r22
	unsigned char temp = data;
	
	ClearClock();
 424:	f2 df       	rcall	.-28     	; 0x40a <_ZN11TouchDriver10ClearClockEv>
 426:	c8 e0       	ldi	r28, 0x08	; 8
 428:	d0 e0       	ldi	r29, 0x00	; 0
	for(int i=0;i<8;i++)
	{
		if(temp & 0b10000000)
 42a:	11 23       	and	r17, r17
 42c:	14 f4       	brge	.+4      	; 0x432 <_ZN11TouchDriver9WriteDataEh+0x1c>
		{
			sbi(DIN_PORT,DIN_PIN);
 42e:	a5 9a       	sbi	0x14, 5	; 20
 430:	01 c0       	rjmp	.+2      	; 0x434 <_ZN11TouchDriver9WriteDataEh+0x1e>
		}
		else
		{
			cbi(DIN_PORT,DIN_PIN);	
 432:	a5 98       	cbi	0x14, 5	; 20
		}
		temp = temp <<(1);
 434:	11 0f       	add	r17, r17
		_NOP();
 436:	00 00       	nop
		ClockPulse();
 438:	c7 01       	movw	r24, r14
 43a:	9a df       	rcall	.-204    	; 0x370 <_ZN11TouchDriver10ClockPulseEv>
 43c:	21 97       	sbiw	r28, 0x01	; 1
void TouchDriver::WriteData(unsigned char data)
{
	unsigned char temp = data;
	
	ClearClock();
	for(int i=0;i<8;i++)
 43e:	a9 f7       	brne	.-22     	; 0x42a <_ZN11TouchDriver9WriteDataEh+0x14>
		}
		temp = temp <<(1);
		_NOP();
		ClockPulse();
	}
	cbi(DIN_PORT,DIN_PIN);
 440:	a5 98       	cbi	0x14, 5	; 20
}
 442:	df 91       	pop	r29
 444:	cf 91       	pop	r28
 446:	1f 91       	pop	r17
 448:	ff 90       	pop	r15
 44a:	ef 90       	pop	r14
 44c:	08 95       	ret

0000044e <_ZN11TouchDriver9InitTouchEv>:
{
	_xOffset = 0;
	_yOffset = 0;
}
void TouchDriver::InitTouch()
{
 44e:	cf 93       	push	r28
 450:	df 93       	push	r29
 452:	ec 01       	movw	r28, r24
	//P Directions
	sbi(CLK_DDR, CLK_PIN);
 454:	e1 e0       	ldi	r30, 0x01	; 1
 456:	f1 e0       	ldi	r31, 0x01	; 1
 458:	80 81       	ld	r24, Z
 45a:	88 60       	ori	r24, 0x08	; 8
 45c:	80 83       	st	Z, r24
	sbi(DIN_DDR, DIN_PIN);
 45e:	9d 9a       	sbi	0x13, 5	; 19
	sbi(CS_DDR, CS_PIN);
 460:	6b 9a       	sbi	0x0d, 3	; 13
	cbi(DOUT_DDR, DOUT_PIN);
 462:	6d 98       	cbi	0x0d, 5	; 13
	cbi(IRQ_DDR, IRQ_PIN);
 464:	6c 98       	cbi	0x0d, 4	; 13
	
	//INT setup for INT4
	sbi(EIMSK, 4);
 466:	ec 9a       	sbi	0x1d, 4	; 29
	sbi(EICRB, 2);
 468:	ea e6       	ldi	r30, 0x6A	; 106
 46a:	f0 e0       	ldi	r31, 0x00	; 0
 46c:	80 81       	ld	r24, Z
 46e:	84 60       	ori	r24, 0x04	; 4
 470:	80 83       	st	Z, r24
	sei();
 472:	78 94       	sei
	
	position = Position(0,0);
 474:	19 82       	std	Y+1, r1	; 0x01
 476:	18 82       	st	Y, r1
 478:	1b 82       	std	Y+3, r1	; 0x03
 47a:	1a 82       	std	Y+2, r1	; 0x02
	
	sbi(CS_PORT,CS_PIN);
 47c:	73 9a       	sbi	0x0e, 3	; 14
	//sbi(CLK_PORT,CLK_PIN);
	//sbi(DIN_PORT,DIN_PIN);
	//sbi(IRQ_PORT,IRQ_PIN);
	_NOP();
 47e:	00 00       	nop
	_NOP();
 480:	00 00       	nop
	cbi(CS_PORT,CS_PIN);
 482:	73 98       	cbi	0x0e, 3	; 14
	_NOP();
 484:	00 00       	nop
	_NOP();
 486:	00 00       	nop
	WriteData(0x90);
 488:	60 e9       	ldi	r22, 0x90	; 144
 48a:	ce 01       	movw	r24, r28
 48c:	c4 df       	rcall	.-120    	; 0x416 <_ZN11TouchDriver9WriteDataEh>
	ClockPulse();
 48e:	ce 01       	movw	r24, r28
 490:	6f df       	rcall	.-290    	; 0x370 <_ZN11TouchDriver10ClockPulseEv>
	unsigned long temp_x = ReadData();
 492:	ce 01       	movw	r24, r28
 494:	7a df       	rcall	.-268    	; 0x38a <_ZN11TouchDriver8ReadDataEv>
 496:	73 9a       	sbi	0x0e, 3	; 14
	sbi(CS_PORT,CS_PIN);
 498:	df 91       	pop	r29
}
 49a:	cf 91       	pop	r28
 49c:	08 95       	ret

0000049e <_ZN11TouchDriver4ReadEv>:
 49e:	0f 93       	push	r16

void TouchDriver::Read()
{
 4a0:	1f 93       	push	r17
 4a2:	cf 93       	push	r28
 4a4:	df 93       	push	r29
 4a6:	ec 01       	movw	r28, r24
	unsigned int temp_x=0, temp_y=0;
	//int datacounter = 0;
	
	cbi(CS_PORT,CS_PIN);
 4a8:	73 98       	cbi	0x0e, 3	; 14
	
	//enables interrupt
	//cbi(IRQ_DDR, IRQ_PIN);
	if(!rbi(IRQ_PORT,IRQ_PIN))
 4aa:	64 99       	sbic	0x0c, 4	; 12
 4ac:	0d c0       	rjmp	.+26     	; 0x4c8 <_ZN11TouchDriver4ReadEv+0x2a>
	{
		WriteData(0x90);
 4ae:	60 e9       	ldi	r22, 0x90	; 144
 4b0:	b2 df       	rcall	.-156    	; 0x416 <_ZN11TouchDriver9WriteDataEh>
		temp_y = ReadData();
 4b2:	ce 01       	movw	r24, r28
 4b4:	6a df       	rcall	.-300    	; 0x38a <_ZN11TouchDriver8ReadDataEv>
 4b6:	8c 01       	movw	r16, r24
		
		if(!rbi(IRQ_PORT,IRQ_PIN))
 4b8:	64 99       	sbic	0x0c, 4	; 12
 4ba:	0b c0       	rjmp	.+22     	; 0x4d2 <_ZN11TouchDriver4ReadEv+0x34>
		{
			WriteData(0xD0);
 4bc:	60 ed       	ldi	r22, 0xD0	; 208
 4be:	ce 01       	movw	r24, r28
			temp_x = ReadData();
 4c0:	aa df       	rcall	.-172    	; 0x416 <_ZN11TouchDriver9WriteDataEh>
 4c2:	ce 01       	movw	r24, r28
 4c4:	62 df       	rcall	.-316    	; 0x38a <_ZN11TouchDriver8ReadDataEv>
 4c6:	07 c0       	rjmp	.+14     	; 0x4d6 <_ZN11TouchDriver4ReadEv+0x38>
	sbi(CS_PORT,CS_PIN);
}

void TouchDriver::Read()
{
	unsigned int temp_x=0, temp_y=0;
 4c8:	00 e0       	ldi	r16, 0x00	; 0
 4ca:	10 e0       	ldi	r17, 0x00	; 0
 4cc:	80 e0       	ldi	r24, 0x00	; 0
 4ce:	90 e0       	ldi	r25, 0x00	; 0
 4d0:	02 c0       	rjmp	.+4      	; 0x4d6 <_ZN11TouchDriver4ReadEv+0x38>
 4d2:	80 e0       	ldi	r24, 0x00	; 0
 4d4:	90 e0       	ldi	r25, 0x00	; 0
		setY(y);
	}

	void setX(int x)
	{
		x_value=x;
 4d6:	99 83       	std	Y+1, r25	; 0x01
 4d8:	88 83       	st	Y, r24
	}
	void setY(int y)
	{
		y_value = y;
 4da:	1b 83       	std	Y+3, r17	; 0x03
		}
	}
	position.setX(temp_x);
	position.setY(temp_y);
	//sbi(IRQ_DDR, IRQ_PIN);
	sbi(CS_PORT,CS_PIN);
 4dc:	0a 83       	std	Y+2, r16	; 0x02
	_NOP();
 4de:	73 9a       	sbi	0x0e, 3	; 14
	ClockPulse();
 4e0:	00 00       	nop
 4e2:	ce 01       	movw	r24, r28
 4e4:	45 df       	rcall	.-374    	; 0x370 <_ZN11TouchDriver10ClockPulseEv>
}
 4e6:	df 91       	pop	r29
 4e8:	cf 91       	pop	r28
 4ea:	1f 91       	pop	r17
 4ec:	0f 91       	pop	r16
 4ee:	08 95       	ret

000004f0 <__divmodhi4>:
 4f0:	97 fb       	bst	r25, 7
 4f2:	07 2e       	mov	r0, r23
 4f4:	16 f4       	brtc	.+4      	; 0x4fa <__divmodhi4+0xa>
 4f6:	00 94       	com	r0
 4f8:	06 d0       	rcall	.+12     	; 0x506 <__divmodhi4_neg1>
 4fa:	77 fd       	sbrc	r23, 7
 4fc:	08 d0       	rcall	.+16     	; 0x50e <__divmodhi4_neg2>
 4fe:	0b d0       	rcall	.+22     	; 0x516 <__udivmodhi4>
 500:	07 fc       	sbrc	r0, 7
 502:	05 d0       	rcall	.+10     	; 0x50e <__divmodhi4_neg2>
 504:	3e f4       	brtc	.+14     	; 0x514 <__divmodhi4_exit>

00000506 <__divmodhi4_neg1>:
 506:	90 95       	com	r25
 508:	81 95       	neg	r24
 50a:	9f 4f       	sbci	r25, 0xFF	; 255
 50c:	08 95       	ret

0000050e <__divmodhi4_neg2>:
 50e:	70 95       	com	r23
 510:	61 95       	neg	r22
 512:	7f 4f       	sbci	r23, 0xFF	; 255

00000514 <__divmodhi4_exit>:
 514:	08 95       	ret

00000516 <__udivmodhi4>:
 516:	aa 1b       	sub	r26, r26
 518:	bb 1b       	sub	r27, r27
 51a:	51 e1       	ldi	r21, 0x11	; 17
 51c:	07 c0       	rjmp	.+14     	; 0x52c <__udivmodhi4_ep>

0000051e <__udivmodhi4_loop>:
 51e:	aa 1f       	adc	r26, r26
 520:	bb 1f       	adc	r27, r27
 522:	a6 17       	cp	r26, r22
 524:	b7 07       	cpc	r27, r23
 526:	10 f0       	brcs	.+4      	; 0x52c <__udivmodhi4_ep>
 528:	a6 1b       	sub	r26, r22
 52a:	b7 0b       	sbc	r27, r23

0000052c <__udivmodhi4_ep>:
 52c:	88 1f       	adc	r24, r24
 52e:	99 1f       	adc	r25, r25
 530:	5a 95       	dec	r21
 532:	a9 f7       	brne	.-22     	; 0x51e <__udivmodhi4_loop>
 534:	80 95       	com	r24
 536:	90 95       	com	r25
 538:	bc 01       	movw	r22, r24
 53a:	cd 01       	movw	r24, r26
 53c:	08 95       	ret

0000053e <__tablejump2__>:
 53e:	ee 0f       	add	r30, r30
 540:	ff 1f       	adc	r31, r31
 542:	88 1f       	adc	r24, r24
 544:	8b bf       	out	0x3b, r24	; 59
 546:	07 90       	elpm	r0, Z+
 548:	f6 91       	elpm	r31, Z
 54a:	e0 2d       	mov	r30, r0
 54c:	19 94       	eijmp

0000054e <__itoa_ncheck>:
 54e:	bb 27       	eor	r27, r27
 550:	4a 30       	cpi	r20, 0x0A	; 10
 552:	31 f4       	brne	.+12     	; 0x560 <__itoa_ncheck+0x12>
 554:	99 23       	and	r25, r25
 556:	22 f4       	brpl	.+8      	; 0x560 <__itoa_ncheck+0x12>
 558:	bd e2       	ldi	r27, 0x2D	; 45
 55a:	90 95       	com	r25
 55c:	81 95       	neg	r24
 55e:	9f 4f       	sbci	r25, 0xFF	; 255
 560:	01 c0       	rjmp	.+2      	; 0x564 <__utoa_common>

00000562 <__utoa_ncheck>:
 562:	bb 27       	eor	r27, r27

00000564 <__utoa_common>:
 564:	fb 01       	movw	r30, r22
 566:	55 27       	eor	r21, r21
 568:	aa 27       	eor	r26, r26
 56a:	88 0f       	add	r24, r24
 56c:	99 1f       	adc	r25, r25
 56e:	aa 1f       	adc	r26, r26
 570:	a4 17       	cp	r26, r20
 572:	10 f0       	brcs	.+4      	; 0x578 <__utoa_common+0x14>
 574:	a4 1b       	sub	r26, r20
 576:	83 95       	inc	r24
 578:	50 51       	subi	r21, 0x10	; 16
 57a:	b9 f7       	brne	.-18     	; 0x56a <__utoa_common+0x6>
 57c:	a0 5d       	subi	r26, 0xD0	; 208
 57e:	aa 33       	cpi	r26, 0x3A	; 58
 580:	08 f0       	brcs	.+2      	; 0x584 <__utoa_common+0x20>
 582:	a9 5d       	subi	r26, 0xD9	; 217
 584:	a1 93       	st	Z+, r26
 586:	00 97       	sbiw	r24, 0x00	; 0
 588:	79 f7       	brne	.-34     	; 0x568 <__utoa_common+0x4>
 58a:	b1 11       	cpse	r27, r1
 58c:	b1 93       	st	Z+, r27
 58e:	11 92       	st	Z+, r1
 590:	cb 01       	movw	r24, r22
 592:	00 c0       	rjmp	.+0      	; 0x594 <strrev>

00000594 <strrev>:
 594:	dc 01       	movw	r26, r24
 596:	fc 01       	movw	r30, r24
 598:	67 2f       	mov	r22, r23
 59a:	71 91       	ld	r23, Z+
 59c:	77 23       	and	r23, r23
 59e:	e1 f7       	brne	.-8      	; 0x598 <strrev+0x4>
 5a0:	32 97       	sbiw	r30, 0x02	; 2
 5a2:	04 c0       	rjmp	.+8      	; 0x5ac <strrev+0x18>
 5a4:	7c 91       	ld	r23, X
 5a6:	6d 93       	st	X+, r22
 5a8:	70 83       	st	Z, r23
 5aa:	62 91       	ld	r22, -Z
 5ac:	ae 17       	cp	r26, r30
 5ae:	bf 07       	cpc	r27, r31
 5b0:	c8 f3       	brcs	.-14     	; 0x5a4 <strrev+0x10>
 5b2:	08 95       	ret

000005b4 <_exit>:
 5b4:	f8 94       	cli

000005b6 <__stop_program>:
 5b6:	ff cf       	rjmp	.-2      	; 0x5b6 <__stop_program>
